target datalayout = "e-m:e-p270:32:32-p271:32:32-p272:64:64-i64:64-i128:128-f80:128-n8:16:32:64-S128"
target triple = "x86_64-pc-linux-gnu"

%class.XMMRegister = type { i32 }
%class.StubCodeGenerator = type { ptr, i8, ptr }

@_ZL4xmm1 = internal constant %class.XMMRegister { i32 1 }, align 4
@_ZL4xmm2 = internal constant %class.XMMRegister { i32 2 }, align 4
@_ZL4xmm3 = internal constant %class.XMMRegister { i32 3 }, align 4
@_ZL4xmm4 = internal constant %class.XMMRegister { i32 4 }, align 4
@_ZL4xmm5 = internal constant %class.XMMRegister { i32 5 }, align 4
@_ZL4xmm6 = internal constant %class.XMMRegister { i32 6 }, align 4
@_ZL4xmm7 = internal constant %class.XMMRegister { i32 7 }, align 4
@_ZL4xmm8 = internal constant %class.XMMRegister { i32 8 }, align 4

; Function Attrs: mustprogress nounwind uwtable
define hidden void @_ZN13StubGenerator8roundDecE11XMMRegister(ptr noundef nonnull align 8 dereferenceable(24) %0, i32 %1) #1 align 2 {
  %3 = alloca %class.XMMRegister, align 4
  %4 = alloca ptr, align 8
  %5 = alloca %class.XMMRegister, align 4
  %6 = alloca %class.XMMRegister, align 4
  %7 = alloca %class.XMMRegister, align 4
  %8 = alloca %class.XMMRegister, align 4
  %9 = alloca %class.XMMRegister, align 4
  %10 = alloca %class.XMMRegister, align 4
  %11 = alloca %class.XMMRegister, align 4
  %12 = alloca %class.XMMRegister, align 4
  %13 = alloca %class.XMMRegister, align 4
  %14 = alloca %class.XMMRegister, align 4
  %15 = alloca %class.XMMRegister, align 4
  %16 = alloca %class.XMMRegister, align 4
  %17 = alloca %class.XMMRegister, align 4
  %18 = alloca %class.XMMRegister, align 4
  %19 = alloca %class.XMMRegister, align 4
  %20 = alloca %class.XMMRegister, align 4
  %21 = alloca %class.XMMRegister, align 4
  %22 = alloca %class.XMMRegister, align 4
  %23 = alloca %class.XMMRegister, align 4
  %24 = alloca %class.XMMRegister, align 4
  %25 = alloca %class.XMMRegister, align 4
  %26 = alloca %class.XMMRegister, align 4
  %27 = alloca %class.XMMRegister, align 4
  %28 = alloca %class.XMMRegister, align 4
  %29 = getelementptr inbounds %class.XMMRegister, ptr %3, i32 0, i32 0
  store i32 %1, ptr %29, align 4
  store ptr %0, ptr %4, align 8
  %30 = load ptr, ptr %4, align 8
  %31 = getelementptr inbounds %class.StubCodeGenerator, ptr %30, i32 0, i32 2
  %32 = load ptr, ptr %31, align 8
  call void @llvm.memcpy.p0.p0.i64(ptr align 4 %5, ptr align 4 @_ZL4xmm1, i64 4, i1 false)
  call void @llvm.memcpy.p0.p0.i64(ptr align 4 %6, ptr align 4 @_ZL4xmm1, i64 4, i1 false)
  call void @llvm.memcpy.p0.p0.i64(ptr align 4 %7, ptr align 4 %3, i64 4, i1 false)
  %33 = getelementptr inbounds %class.XMMRegister, ptr %5, i32 0, i32 0
  %34 = load i32, ptr %33, align 4
  %35 = getelementptr inbounds %class.XMMRegister, ptr %6, i32 0, i32 0
  %36 = load i32, ptr %35, align 4
  %37 = getelementptr inbounds %class.XMMRegister, ptr %7, i32 0, i32 0
  %38 = load i32, ptr %37, align 4
  call void @_ZN9Assembler7vaesdecE11XMMRegisterS0_S0_i(ptr noundef nonnull align 8 dereferenceable(40) %32, i32 %34, i32 %36, i32 %38, i32 noundef 2)
  %39 = getelementptr inbounds %class.StubCodeGenerator, ptr %30, i32 0, i32 2
  %40 = load ptr, ptr %39, align 8
  call void @llvm.memcpy.p0.p0.i64(ptr align 4 %8, ptr align 4 @_ZL4xmm2, i64 4, i1 false)
  call void @llvm.memcpy.p0.p0.i64(ptr align 4 %9, ptr align 4 @_ZL4xmm2, i64 4, i1 false)
  call void @llvm.memcpy.p0.p0.i64(ptr align 4 %10, ptr align 4 %3, i64 4, i1 false)
  %41 = getelementptr inbounds %class.XMMRegister, ptr %8, i32 0, i32 0
  %42 = load i32, ptr %41, align 4
  %43 = getelementptr inbounds %class.XMMRegister, ptr %9, i32 0, i32 0
  %44 = load i32, ptr %43, align 4
  %45 = getelementptr inbounds %class.XMMRegister, ptr %10, i32 0, i32 0
  %46 = load i32, ptr %45, align 4
  call void @_ZN9Assembler7vaesdecE11XMMRegisterS0_S0_i(ptr noundef nonnull align 8 dereferenceable(40) %40, i32 %42, i32 %44, i32 %46, i32 noundef 2)
  %47 = getelementptr inbounds %class.StubCodeGenerator, ptr %30, i32 0, i32 2
  %48 = load ptr, ptr %47, align 8
  call void @llvm.memcpy.p0.p0.i64(ptr align 4 %11, ptr align 4 @_ZL4xmm3, i64 4, i1 false)
  call void @llvm.memcpy.p0.p0.i64(ptr align 4 %12, ptr align 4 @_ZL4xmm3, i64 4, i1 false)
  call void @llvm.memcpy.p0.p0.i64(ptr align 4 %13, ptr align 4 %3, i64 4, i1 false)
  %49 = getelementptr inbounds %class.XMMRegister, ptr %11, i32 0, i32 0
  %50 = load i32, ptr %49, align 4
  %51 = getelementptr inbounds %class.XMMRegister, ptr %12, i32 0, i32 0
  %52 = load i32, ptr %51, align 4
  %53 = getelementptr inbounds %class.XMMRegister, ptr %13, i32 0, i32 0
  %54 = load i32, ptr %53, align 4
  call void @_ZN9Assembler7vaesdecE11XMMRegisterS0_S0_i(ptr noundef nonnull align 8 dereferenceable(40) %48, i32 %50, i32 %52, i32 %54, i32 noundef 2)
  %55 = getelementptr inbounds %class.StubCodeGenerator, ptr %30, i32 0, i32 2
  %56 = load ptr, ptr %55, align 8
  call void @llvm.memcpy.p0.p0.i64(ptr align 4 %14, ptr align 4 @_ZL4xmm4, i64 4, i1 false)
  call void @llvm.memcpy.p0.p0.i64(ptr align 4 %15, ptr align 4 @_ZL4xmm4, i64 4, i1 false)
  call void @llvm.memcpy.p0.p0.i64(ptr align 4 %16, ptr align 4 %3, i64 4, i1 false)
  %57 = getelementptr inbounds %class.XMMRegister, ptr %14, i32 0, i32 0
  %58 = load i32, ptr %57, align 4
  %59 = getelementptr inbounds %class.XMMRegister, ptr %15, i32 0, i32 0
  %60 = load i32, ptr %59, align 4
  %61 = getelementptr inbounds %class.XMMRegister, ptr %16, i32 0, i32 0
  %62 = load i32, ptr %61, align 4
  call void @_ZN9Assembler7vaesdecE11XMMRegisterS0_S0_i(ptr noundef nonnull align 8 dereferenceable(40) %56, i32 %58, i32 %60, i32 %62, i32 noundef 2)
  %63 = getelementptr inbounds %class.StubCodeGenerator, ptr %30, i32 0, i32 2
  %64 = load ptr, ptr %63, align 8
  call void @llvm.memcpy.p0.p0.i64(ptr align 4 %17, ptr align 4 @_ZL4xmm5, i64 4, i1 false)
  call void @llvm.memcpy.p0.p0.i64(ptr align 4 %18, ptr align 4 @_ZL4xmm5, i64 4, i1 false)
  call void @llvm.memcpy.p0.p0.i64(ptr align 4 %19, ptr align 4 %3, i64 4, i1 false)
  %65 = getelementptr inbounds %class.XMMRegister, ptr %17, i32 0, i32 0
  %66 = load i32, ptr %65, align 4
  %67 = getelementptr inbounds %class.XMMRegister, ptr %18, i32 0, i32 0
  %68 = load i32, ptr %67, align 4
  %69 = getelementptr inbounds %class.XMMRegister, ptr %19, i32 0, i32 0
  %70 = load i32, ptr %69, align 4
  call void @_ZN9Assembler7vaesdecE11XMMRegisterS0_S0_i(ptr noundef nonnull align 8 dereferenceable(40) %64, i32 %66, i32 %68, i32 %70, i32 noundef 2)
  %71 = getelementptr inbounds %class.StubCodeGenerator, ptr %30, i32 0, i32 2
  %72 = load ptr, ptr %71, align 8
  call void @llvm.memcpy.p0.p0.i64(ptr align 4 %20, ptr align 4 @_ZL4xmm6, i64 4, i1 false)
  call void @llvm.memcpy.p0.p0.i64(ptr align 4 %21, ptr align 4 @_ZL4xmm6, i64 4, i1 false)
  call void @llvm.memcpy.p0.p0.i64(ptr align 4 %22, ptr align 4 %3, i64 4, i1 false)
  %73 = getelementptr inbounds %class.XMMRegister, ptr %20, i32 0, i32 0
  %74 = load i32, ptr %73, align 4
  %75 = getelementptr inbounds %class.XMMRegister, ptr %21, i32 0, i32 0
  %76 = load i32, ptr %75, align 4
  %77 = getelementptr inbounds %class.XMMRegister, ptr %22, i32 0, i32 0
  %78 = load i32, ptr %77, align 4
  call void @_ZN9Assembler7vaesdecE11XMMRegisterS0_S0_i(ptr noundef nonnull align 8 dereferenceable(40) %72, i32 %74, i32 %76, i32 %78, i32 noundef 2)
  %79 = getelementptr inbounds %class.StubCodeGenerator, ptr %30, i32 0, i32 2
  %80 = load ptr, ptr %79, align 8
  call void @llvm.memcpy.p0.p0.i64(ptr align 4 %23, ptr align 4 @_ZL4xmm7, i64 4, i1 false)
  call void @llvm.memcpy.p0.p0.i64(ptr align 4 %24, ptr align 4 @_ZL4xmm7, i64 4, i1 false)
  call void @llvm.memcpy.p0.p0.i64(ptr align 4 %25, ptr align 4 %3, i64 4, i1 false)
  %81 = getelementptr inbounds %class.XMMRegister, ptr %23, i32 0, i32 0
  %82 = load i32, ptr %81, align 4
  %83 = getelementptr inbounds %class.XMMRegister, ptr %24, i32 0, i32 0
  %84 = load i32, ptr %83, align 4
  %85 = getelementptr inbounds %class.XMMRegister, ptr %25, i32 0, i32 0
  %86 = load i32, ptr %85, align 4
  call void @_ZN9Assembler7vaesdecE11XMMRegisterS0_S0_i(ptr noundef nonnull align 8 dereferenceable(40) %80, i32 %82, i32 %84, i32 %86, i32 noundef 2)
  %87 = getelementptr inbounds %class.StubCodeGenerator, ptr %30, i32 0, i32 2
  %88 = load ptr, ptr %87, align 8
  call void @llvm.memcpy.p0.p0.i64(ptr align 4 %26, ptr align 4 @_ZL4xmm8, i64 4, i1 false)
  call void @llvm.memcpy.p0.p0.i64(ptr align 4 %27, ptr align 4 @_ZL4xmm8, i64 4, i1 false)
  call void @llvm.memcpy.p0.p0.i64(ptr align 4 %28, ptr align 4 %3, i64 4, i1 false)
  %89 = getelementptr inbounds %class.XMMRegister, ptr %26, i32 0, i32 0
  %90 = load i32, ptr %89, align 4
  %91 = getelementptr inbounds %class.XMMRegister, ptr %27, i32 0, i32 0
  %92 = load i32, ptr %91, align 4
  %93 = getelementptr inbounds %class.XMMRegister, ptr %28, i32 0, i32 0
  %94 = load i32, ptr %93, align 4
  call void @_ZN9Assembler7vaesdecE11XMMRegisterS0_S0_i(ptr noundef nonnull align 8 dereferenceable(40) %88, i32 %90, i32 %92, i32 %94, i32 noundef 2)
  ret void
}