; Function Attrs: mustprogress nounwind uwtable
define hidden void @_ZN13StubGenerator8roundDecE11XMMRegister(ptr nocapture noundef nonnull readonly align 8 dereferenceable(24) %0, i32 %1) local_unnamed_addr #0 align 2 {
  %3 = getelementptr inbounds i8, ptr %0, i64 16
  %4 = load ptr, ptr %3, align 8
  tail call void @_ZN9Assembler7vaesdecE11XMMRegisterS0_S0_i(ptr noundef nonnull align 8 dereferenceable(40) %4, i32 1, i32 1, i32 %1, i32 noundef 2) #7
  %5 = load ptr, ptr %3, align 8
  tail call void @_ZN9Assembler7vaesdecE11XMMRegisterS0_S0_i(ptr noundef nonnull align 8 dereferenceable(40) %5, i32 2, i32 2, i32 %1, i32 noundef 2) #7
  %6 = load ptr, ptr %3, align 8
  tail call void @_ZN9Assembler7vaesdecE11XMMRegisterS0_S0_i(ptr noundef nonnull align 8 dereferenceable(40) %6, i32 3, i32 3, i32 %1, i32 noundef 2) #7
  %7 = load ptr, ptr %3, align 8
  tail call void @_ZN9Assembler7vaesdecE11XMMRegisterS0_S0_i(ptr noundef nonnull align 8 dereferenceable(40) %7, i32 4, i32 4, i32 %1, i32 noundef 2) #7
  %8 = load ptr, ptr %3, align 8
  tail call void @_ZN9Assembler7vaesdecE11XMMRegisterS0_S0_i(ptr noundef nonnull align 8 dereferenceable(40) %8, i32 5, i32 5, i32 %1, i32 noundef 2) #7
  %9 = load ptr, ptr %3, align 8
  tail call void @_ZN9Assembler7vaesdecE11XMMRegisterS0_S0_i(ptr noundef nonnull align 8 dereferenceable(40) %9, i32 6, i32 6, i32 %1, i32 noundef 2) #7
  %10 = load ptr, ptr %3, align 8
  tail call void @_ZN9Assembler7vaesdecE11XMMRegisterS0_S0_i(ptr noundef nonnull align 8 dereferenceable(40) %10, i32 7, i32 7, i32 %1, i32 noundef 2) #7
  %11 = load ptr, ptr %3, align 8
  tail call void @_ZN9Assembler7vaesdecE11XMMRegisterS0_S0_i(ptr noundef nonnull align 8 dereferenceable(40) %11, i32 8, i32 8, i32 %1, i32 noundef 2) #7
  ret void
}